; Function Attrs: mustprogress nounwind uwtable
define void @_ZN6Assimp13DefaultLoggerD2Ev(ptr nocapture noundef nonnull align 8 dereferenceable(2104) %this) unnamed_addr #0 align 2 personality ptr @__gxx_personality_v0 {
entry:
  store ptr getelementptr inbounds ({ [11 x ptr] }, ptr @_ZTVN6Assimp13DefaultLoggerE, i64 0, i32 0, i64 2), ptr %this, align 8
  %m_StreamArray = getelementptr inbounds i8, ptr %this, i64 16
  %0 = load ptr, ptr %m_StreamArray, align 8
  %_M_finish.i = getelementptr inbounds i8, ptr %this, i64 24
  %1 = load ptr, ptr %_M_finish.i, align 8
  %cmp.i.not3 = icmp eq ptr %0, %1
  br i1 %cmp.i.not3, label %for.end, label %for.body

for.body:                                         ; preds = %entry, %for.inc
  %2 = phi ptr [ %6, %for.inc ], [ %1, %entry ]
  %it.sroa.0.04 = phi ptr [ %incdec.ptr.i, %for.inc ], [ %0, %entry ]
  %3 = load ptr, ptr %it.sroa.0.04, align 8
  %isnull = icmp eq ptr %3, null
  br i1 %isnull, label %for.inc, label %delete.notnull

delete.notnull:                                   ; preds = %for.body
  %m_pStream.i = getelementptr inbounds i8, ptr %3, i64 8
  %4 = load ptr, ptr %m_pStream.i, align 8
  %isnull.i = icmp eq ptr %4, null
  br i1 %isnull.i, label %_ZN6Assimp13LogStreamInfoD2Ev.exit, label %delete.notnull.i

delete.notnull.i:                                 ; preds = %delete.notnull
  %vtable.i = load ptr, ptr %4, align 8
  %vfn.i = getelementptr inbounds i8, ptr %vtable.i, i64 8
  %5 = load ptr, ptr %vfn.i, align 8
  tail call void %5(ptr noundef nonnull align 8 dereferenceable(8) %4) #20
  br label %_ZN6Assimp13LogStreamInfoD2Ev.exit

_ZN6Assimp13LogStreamInfoD2Ev.exit:               ; preds = %delete.notnull, %delete.notnull.i
  tail call void @_ZdlPv(ptr noundef nonnull %3) #21
  %.pre = load ptr, ptr %_M_finish.i, align 8
  br label %for.inc

for.inc:                                          ; preds = %for.body, %_ZN6Assimp13LogStreamInfoD2Ev.exit
  %6 = phi ptr [ %2, %for.body ], [ %.pre, %_ZN6Assimp13LogStreamInfoD2Ev.exit ]
  %incdec.ptr.i = getelementptr inbounds i8, ptr %it.sroa.0.04, i64 8
  %cmp.i.not = icmp eq ptr %incdec.ptr.i, %6
  br i1 %cmp.i.not, label %for.end.loopexit, label %for.body, !llvm.loop !9

for.end.loopexit:                                 ; preds = %for.inc
  %.pre5 = load ptr, ptr %m_StreamArray, align 8
  br label %for.end

for.end:                                          ; preds = %for.end.loopexit, %entry
  %7 = phi ptr [ %.pre5, %for.end.loopexit ], [ %0, %entry ]
  %tobool.not.i.i.i = icmp eq ptr %7, null
  br i1 %tobool.not.i.i.i, label %_ZNSt6vectorIPN6Assimp13LogStreamInfoESaIS2_EED2Ev.exit, label %if.then.i.i.i

if.then.i.i.i:                                    ; preds = %for.end
  tail call void @_ZdlPv(ptr noundef nonnull %7) #21
  br label %_ZNSt6vectorIPN6Assimp13LogStreamInfoESaIS2_EED2Ev.exit

_ZNSt6vectorIPN6Assimp13LogStreamInfoESaIS2_EED2Ev.exit: ; preds = %for.end, %if.then.i.i.i
  ret void
}